; Function Attrs: nounwind uwtable
define hidden zeroext i1 @Wayland_GLES_MakeCurrent(ptr noundef %0, ptr noundef readonly captures(address_is_null) %1, ptr noundef %2) local_unnamed_addr #0 {
  %4 = icmp ne ptr %1, null
  %5 = icmp ne ptr %2, null
  %or.cond = and i1 %4, %5
  br i1 %or.cond, label %6, label %12

6:                                                ; preds = %3
  %7 = getelementptr inbounds nuw i8, ptr %1, i64 392
  %8 = load ptr, ptr %7, align 8
  %9 = getelementptr inbounds nuw i8, ptr %8, i64 112
  %10 = load ptr, ptr %9, align 8
  %11 = tail call zeroext i1 @SDL_EGL_MakeCurrent(ptr noundef %0, ptr noundef %10, ptr noundef nonnull %2) #4
  br label %14

12:                                               ; preds = %3
  %13 = tail call zeroext i1 @SDL_EGL_MakeCurrent(ptr noundef %0, ptr noundef null, ptr noundef null) #4
  br label %14

14:                                               ; preds = %12, %6
  %.0.in = phi i1 [ %11, %6 ], [ %13, %12 ]
  %15 = load ptr, ptr @WAYLAND_wl_display_flush, align 8
  %16 = getelementptr inbounds nuw i8, ptr %0, i64 1656
  %17 = load ptr, ptr %16, align 8
  %18 = getelementptr inbounds nuw i8, ptr %17, i64 8
  %19 = load ptr, ptr %18, align 8
  %20 = tail call i32 %15(ptr noundef %19) #4
  %21 = getelementptr inbounds nuw i8, ptr %0, i64 1672
  %22 = load ptr, ptr %21, align 8
  %23 = getelementptr inbounds nuw i8, ptr %22, i64 160
  %24 = load ptr, ptr %23, align 8
  %25 = getelementptr inbounds nuw i8, ptr %22, i64 16
  %26 = load ptr, ptr %25, align 8
  %27 = tail call i32 %24(ptr noundef %26, i32 noundef 0) #4
  ret i1 %.0.in
}